; ModuleID = 'source-C-CXX/28/1233.c'
source_filename = "source-C-CXX/28/1233.c"
target datalayout = "e-m:e-p270:32:32-p271:32:32-p272:64:64-i64:64-f80:128-n8:16:32:64-S128"
target triple = "x86_64-pc-linux-gnu"

@.str = private unnamed_addr constant [3 x i8] c"%d\00", align 1
@.str.1 = private unnamed_addr constant [7 x i8] c"%.3lf\0A\00", align 1

; Function Attrs: nofree nounwind sspstrong uwtable
define dso_local i32 @main() local_unnamed_addr #0 {
  %1 = alloca i32, align 4
  %2 = alloca [100 x i32], align 16
  %3 = bitcast i32* %1 to i8*
  call void @llvm.lifetime.start.p0i8(i64 4, i8* nonnull %3) #3
  %4 = bitcast [100 x i32]* %2 to i8*
  call void @llvm.lifetime.start.p0i8(i64 400, i8* nonnull %4) #3
  %5 = call i32 (i8*, ...) @__isoc99_scanf(i8* getelementptr inbounds ([3 x i8], [3 x i8]* @.str, i64 0, i64 0), i32* nonnull %1)
  %6 = load i32, i32* %1, align 4, !tbaa !5
  %7 = icmp sgt i32 %6, 0
  br i1 %7, label %8, label %46

8:                                                ; preds = %0, %39
  %9 = phi i64 [ %42, %39 ], [ 0, %0 ]
  %10 = getelementptr inbounds [100 x i32], [100 x i32]* %2, i64 0, i64 %9
  %11 = call i32 (i8*, ...) @__isoc99_scanf(i8* getelementptr inbounds ([3 x i8], [3 x i8]* @.str, i64 0, i64 0), i32* nonnull %10)
  %12 = load i32, i32* %10, align 4, !tbaa !5
  %13 = icmp sgt i32 %12, 0
  br i1 %13, label %14, label %39

14:                                               ; preds = %8
  %15 = zext i32 %12 to i64
  %16 = and i64 %15, 1
  %17 = icmp eq i32 %12, 1
  br i1 %17, label %32, label %18

18:                                               ; preds = %14
  %19 = and i64 %15, 4294967294
  br label %20

20:                                               ; preds = %20, %18
  %21 = phi double [ 2.000000e+00, %18 ], [ %28, %20 ]
  %22 = phi double [ 0.000000e+00, %18 ], [ %29, %20 ]
  %23 = phi i64 [ %19, %18 ], [ %30, %20 ]
  %24 = fdiv double 1.000000e+00, %21
  %25 = fadd double %24, 1.000000e+00
  %26 = fadd double %22, %21
  %27 = fdiv double 1.000000e+00, %25
  %28 = fadd double %27, 1.000000e+00
  %29 = fadd double %26, %25
  %30 = add i64 %23, -2
  %31 = icmp eq i64 %30, 0
  br i1 %31, label %32, label %20, !llvm.loop !9

32:                                               ; preds = %20, %14
  %33 = phi double [ undef, %14 ], [ %29, %20 ]
  %34 = phi double [ 2.000000e+00, %14 ], [ %28, %20 ]
  %35 = phi double [ 0.000000e+00, %14 ], [ %29, %20 ]
  %36 = icmp eq i64 %16, 0
  %37 = fadd double %35, %34
  %38 = select i1 %36, double %33, double %37
  br label %39

39:                                               ; preds = %32, %8
  %40 = phi double [ 0.000000e+00, %8 ], [ %38, %32 ]
  %41 = call i32 (i8*, ...) @printf(i8* nonnull dereferenceable(1) getelementptr inbounds ([7 x i8], [7 x i8]* @.str.1, i64 0, i64 0), double %40)
  %42 = add nuw nsw i64 %9, 1
  %43 = load i32, i32* %1, align 4, !tbaa !5
  %44 = sext i32 %43 to i64
  %45 = icmp slt i64 %42, %44
  br i1 %45, label %8, label %46, !llvm.loop !11

46:                                               ; preds = %39, %0
  call void @llvm.lifetime.end.p0i8(i64 400, i8* nonnull %4) #3
  call void @llvm.lifetime.end.p0i8(i64 4, i8* nonnull %3) #3
  ret i32 0
}

; Function Attrs: argmemonly mustprogress nofree nosync nounwind willreturn
declare void @llvm.lifetime.start.p0i8(i64 immarg, i8* nocapture) #1

; Function Attrs: nofree nounwind
declare noundef i32 @__isoc99_scanf(i8* nocapture noundef readonly, ...) local_unnamed_addr #2

; Function Attrs: nofree nounwind
declare noundef i32 @printf(i8* nocapture noundef readonly, ...) local_unnamed_addr #2

; Function Attrs: argmemonly mustprogress nofree nosync nounwind willreturn
declare void @llvm.lifetime.end.p0i8(i64 immarg, i8* nocapture) #1


!llvm.module.flags = !{!0, !1, !2, !3}
!llvm.ident = !{!4}

!0 = !{i32 1, !"wchar_size", i32 4}
!1 = !{i32 7, !"PIC Level", i32 2}
!2 = !{i32 7, !"PIE Level", i32 2}
!3 = !{i32 7, !"uwtable", i32 1}
!4 = !{!"clang version 13.0.0"}
!5 = !{!6, !6, i64 0}
!6 = !{!"int", !7, i64 0}
!7 = !{!"omnipotent char", !8, i64 0}
!8 = !{!"Simple C/C++ TBAA"}
!9 = distinct !{!9, !10}
!10 = !{!"llvm.loop.mustprogress"}
!11 = distinct !{!11, !10}
